; Function Attrs: nofree nounwind uwtable
define void @Aig_CutPrint(ptr noundef readonly captures(none) %0) local_unnamed_addr #7 {
  %putchar = tail call i32 @putchar(i32 123)
  %2 = getelementptr inbounds nuw i8, ptr %0, i64 23
  %3 = load i8, ptr %2, align 1, !tbaa !35
  %4 = icmp sgt i8 %3, 0
  br i1 %4, label %.lr.ph, label %._crit_edge

.lr.ph:                                           ; preds = %1
  %5 = getelementptr inbounds nuw i8, ptr %0, i64 24
  br label %6

6:                                                ; preds = %.lr.ph, %6
  %indvars.iv = phi i64 [ 0, %.lr.ph ], [ %indvars.iv.next, %6 ]
  %7 = getelementptr inbounds nuw [0 x i32], ptr %5, i64 0, i64 %indvars.iv
  %8 = load i32, ptr %7, align 4, !tbaa !39
  %9 = tail call i32 (ptr, ...) @printf(ptr noundef nonnull dereferenceable(1) @.str.1, i32 noundef %8)
  %indvars.iv.next = add nuw nsw i64 %indvars.iv, 1
  %10 = load i8, ptr %2, align 1, !tbaa !35
  %11 = sext i8 %10 to i64
  %12 = icmp slt i64 %indvars.iv.next, %11
  br i1 %12, label %6, label %._crit_edge, !llvm.loop !40

._crit_edge:                                      ; preds = %6, %1
  %puts = tail call i32 @puts(ptr nonnull dereferenceable(1) @str)
  ret void
}